target datalayout = "e-m:e-p270:32:32-p271:32:32-p272:64:64-i64:64-i128:128-f80:128-n8:16:32:64-S128"
target triple = "x86_64-pc-linux-gnu"

%"class.cv::Rect_" = type { double, double, double, double }

@_ZN2cv6detail8tracking3tld11tldRootPathE = hidden global [100 x i8] zeroinitializer, align 16
@_ZN2cv6detail8tracking3tld8frameNumE = hidden global i32 0, align 4
@_ZN2cv6detail8tracking3tld7flagPNGE = hidden global i8 0, align 1
@_ZN2cv6detail8tracking3tld7flagVOTE = hidden global i8 0, align 1
@_ZN2cv6detail8tracking3tld13tldFolderNameE = hidden global [10 x ptr] [ptr @.str, ptr @.str.1, ptr @.str.2, ptr @.str.3, ptr @.str.4, ptr @.str.5, ptr @.str.6, ptr @.str.7, ptr @.str.8, ptr @.str.9], align 16
@_ZN2cv6detail8tracking3tldL9tldInitBBE = internal global [10 x %"class.cv::Rect_"] zeroinitializer, align 16
@_ZN2cv6detail8tracking3tldL9votInitBBE = internal global [60 x %"class.cv::Rect_"] zeroinitializer, align 16
@_ZN2cv6detail8tracking3tld14tldFrameOffsetE = hidden global [10 x i32] [i32 100, i32 1, i32 1, i32 1, i32 1, i32 1, i32 1, i32 1, i32 1, i32 1], align 16
@_ZN2cv6detail8tracking3tld10tldFlagPNGE = hidden global [10 x i8] c"\00\00\00\00\00\00\01\00\00\00", align 1
@_ZN2cv6detail8tracking3tld10votFlagPNGE = hidden global [60 x i8] zeroinitializer, align 16
@.str.72 = private unnamed_addr constant [1 x i8] zeroinitializer, align 1
@.str.73 = private unnamed_addr constant [2 x i8] c"\\\00", align 1

; Function Attrs: inlinehint mustprogress nounwind uwtable
define linkonce_odr hidden void @_ZN2cv5Rect_IdEC2Edddd(ptr noundef nonnull align 8 dereferenceable(32) %0, double noundef %1, double noundef %2, double noundef %3, double noundef %4) unnamed_addr #4 comdat align 2 {
  %6 = alloca ptr, align 8
  %7 = alloca double, align 8
  %8 = alloca double, align 8
  %9 = alloca double, align 8
  %10 = alloca double, align 8
  store ptr %0, ptr %6, align 8, !tbaa !3
  store double %1, ptr %7, align 8, !tbaa !8
  store double %2, ptr %8, align 8, !tbaa !8
  store double %3, ptr %9, align 8, !tbaa !8
  store double %4, ptr %10, align 8, !tbaa !8
  %11 = load ptr, ptr %6, align 8
  %12 = getelementptr inbounds nuw %"class.cv::Rect_", ptr %11, i32 0, i32 0
  %13 = load double, ptr %7, align 8, !tbaa !8
  store double %13, ptr %12, align 8, !tbaa !10
  %14 = getelementptr inbounds nuw %"class.cv::Rect_", ptr %11, i32 0, i32 1
  %15 = load double, ptr %8, align 8, !tbaa !8
  store double %15, ptr %14, align 8, !tbaa !12
  %16 = getelementptr inbounds nuw %"class.cv::Rect_", ptr %11, i32 0, i32 2
  %17 = load double, ptr %9, align 8, !tbaa !8
  store double %17, ptr %16, align 8, !tbaa !13
  %18 = getelementptr inbounds nuw %"class.cv::Rect_", ptr %11, i32 0, i32 3
  %19 = load double, ptr %10, align 8, !tbaa !8
  store double %19, ptr %18, align 8, !tbaa !14
  ret void
}

; Function Attrs: mustprogress uwtable
define void @_ZN2cv6detail8tracking3tld15tld_InitDatasetEiPKci(ptr dead_on_unwind noalias writable sret(%"class.cv::Rect_") align 8 %0, i32 noundef %1, ptr noundef %2, i32 noundef %3) #6 {
  %5 = alloca i32, align 4
  %6 = alloca ptr, align 8
  %7 = alloca i32, align 4
  %8 = alloca ptr, align 8
  %9 = alloca double, align 8
  %10 = alloca double, align 8
  %11 = alloca double, align 8
  %12 = alloca double, align 8
  %13 = alloca i32, align 4
  store i32 %1, ptr %5, align 4, !tbaa !15
  store ptr %2, ptr %6, align 8, !tbaa !17
  store i32 %3, ptr %7, align 4, !tbaa !15
  call void @llvm.lifetime.start.p0(i64 8, ptr %8) #3
  store ptr @.str.72, ptr %8, align 8, !tbaa !17
  call void @llvm.lifetime.start.p0(i64 8, ptr %9) #3
  store double 0.000000e+00, ptr %9, align 8, !tbaa !8
  call void @llvm.lifetime.start.p0(i64 8, ptr %10) #3
  store double 0.000000e+00, ptr %10, align 8, !tbaa !8
  call void @llvm.lifetime.start.p0(i64 8, ptr %11) #3
  store double 0.000000e+00, ptr %11, align 8, !tbaa !8
  call void @llvm.lifetime.start.p0(i64 8, ptr %12) #3
  store double 0.000000e+00, ptr %12, align 8, !tbaa !8
  call void @llvm.lifetime.start.p0(i64 4, ptr %13) #3
  %14 = load i32, ptr %5, align 4, !tbaa !15
  %15 = sub nsw i32 %14, 1
  store i32 %15, ptr %13, align 4, !tbaa !15
  %16 = load i32, ptr %7, align 4, !tbaa !15
  %17 = icmp eq i32 %16, 0
  br i1 %17, label %18, label %53

18:                                               ; preds = %4
  %19 = load i32, ptr %13, align 4, !tbaa !15
  %20 = sext i32 %19 to i64
  %21 = getelementptr inbounds [10 x ptr], ptr @_ZN2cv6detail8tracking3tld13tldFolderNameE, i64 0, i64 %20
  %22 = load ptr, ptr %21, align 8, !tbaa !17
  store ptr %22, ptr %8, align 8, !tbaa !17
  %23 = load i32, ptr %13, align 4, !tbaa !15
  %24 = sext i32 %23 to i64
  %25 = getelementptr inbounds [10 x %"class.cv::Rect_"], ptr @_ZN2cv6detail8tracking3tldL9tldInitBBE, i64 0, i64 %24
  %26 = getelementptr inbounds nuw %"class.cv::Rect_", ptr %25, i32 0, i32 0
  %27 = load double, ptr %26, align 16, !tbaa !10
  store double %27, ptr %9, align 8, !tbaa !8
  %28 = load i32, ptr %13, align 4, !tbaa !15
  %29 = sext i32 %28 to i64
  %30 = getelementptr inbounds [10 x %"class.cv::Rect_"], ptr @_ZN2cv6detail8tracking3tldL9tldInitBBE, i64 0, i64 %29
  %31 = getelementptr inbounds nuw %"class.cv::Rect_", ptr %30, i32 0, i32 1
  %32 = load double, ptr %31, align 8, !tbaa !12
  store double %32, ptr %10, align 8, !tbaa !8
  %33 = load i32, ptr %13, align 4, !tbaa !15
  %34 = sext i32 %33 to i64
  %35 = getelementptr inbounds [10 x %"class.cv::Rect_"], ptr @_ZN2cv6detail8tracking3tldL9tldInitBBE, i64 0, i64 %34
  %36 = getelementptr inbounds nuw %"class.cv::Rect_", ptr %35, i32 0, i32 2
  %37 = load double, ptr %36, align 16, !tbaa !13
  store double %37, ptr %11, align 8, !tbaa !8
  %38 = load i32, ptr %13, align 4, !tbaa !15
  %39 = sext i32 %38 to i64
  %40 = getelementptr inbounds [10 x %"class.cv::Rect_"], ptr @_ZN2cv6detail8tracking3tldL9tldInitBBE, i64 0, i64 %39
  %41 = getelementptr inbounds nuw %"class.cv::Rect_", ptr %40, i32 0, i32 3
  %42 = load double, ptr %41, align 8, !tbaa !14
  store double %42, ptr %12, align 8, !tbaa !8
  %43 = load i32, ptr %13, align 4, !tbaa !15
  %44 = sext i32 %43 to i64
  %45 = getelementptr inbounds [10 x i32], ptr @_ZN2cv6detail8tracking3tld14tldFrameOffsetE, i64 0, i64 %44
  %46 = load i32, ptr %45, align 4, !tbaa !15
  store i32 %46, ptr @_ZN2cv6detail8tracking3tld8frameNumE, align 4, !tbaa !15
  %47 = load i32, ptr %13, align 4, !tbaa !15
  %48 = sext i32 %47 to i64
  %49 = getelementptr inbounds [10 x i8], ptr @_ZN2cv6detail8tracking3tld10tldFlagPNGE, i64 0, i64 %48
  %50 = load i8, ptr %49, align 1, !tbaa !19, !range !21, !noundef !22
  %51 = trunc i8 %50 to i1
  %52 = zext i1 %51 to i8
  store i8 %52, ptr @_ZN2cv6detail8tracking3tld7flagPNGE, align 1, !tbaa !19
  store i8 0, ptr @_ZN2cv6detail8tracking3tld7flagVOTE, align 1, !tbaa !19
  br label %53

53:                                               ; preds = %18, %4
  %54 = load i32, ptr %7, align 4, !tbaa !15
  %55 = icmp eq i32 %54, 1
  br i1 %55, label %56, label %91

56:                                               ; preds = %53
  %57 = load i32, ptr %13, align 4, !tbaa !15
  %58 = sext i32 %57 to i64
  %59 = getelementptr inbounds [60 x ptr], ptr @_ZN2cv6detail8tracking3tld13votFolderNameE, i64 0, i64 %58
  %60 = load ptr, ptr %59, align 8, !tbaa !17
  store ptr %60, ptr %8, align 8, !tbaa !17
  %61 = load i32, ptr %13, align 4, !tbaa !15
  %62 = sext i32 %61 to i64
  %63 = getelementptr inbounds [60 x %"class.cv::Rect_"], ptr @_ZN2cv6detail8tracking3tldL9votInitBBE, i64 0, i64 %62
  %64 = getelementptr inbounds nuw %"class.cv::Rect_", ptr %63, i32 0, i32 0
  %65 = load double, ptr %64, align 16, !tbaa !10
  store double %65, ptr %9, align 8, !tbaa !8
  %66 = load i32, ptr %13, align 4, !tbaa !15
  %67 = sext i32 %66 to i64
  %68 = getelementptr inbounds [60 x %"class.cv::Rect_"], ptr @_ZN2cv6detail8tracking3tldL9votInitBBE, i64 0, i64 %67
  %69 = getelementptr inbounds nuw %"class.cv::Rect_", ptr %68, i32 0, i32 1
  %70 = load double, ptr %69, align 8, !tbaa !12
  store double %70, ptr %10, align 8, !tbaa !8
  %71 = load i32, ptr %13, align 4, !tbaa !15
  %72 = sext i32 %71 to i64
  %73 = getelementptr inbounds [60 x %"class.cv::Rect_"], ptr @_ZN2cv6detail8tracking3tldL9votInitBBE, i64 0, i64 %72
  %74 = getelementptr inbounds nuw %"class.cv::Rect_", ptr %73, i32 0, i32 2
  %75 = load double, ptr %74, align 16, !tbaa !13
  store double %75, ptr %11, align 8, !tbaa !8
  %76 = load i32, ptr %13, align 4, !tbaa !15
  %77 = sext i32 %76 to i64
  %78 = getelementptr inbounds [60 x %"class.cv::Rect_"], ptr @_ZN2cv6detail8tracking3tldL9votInitBBE, i64 0, i64 %77
  %79 = getelementptr inbounds nuw %"class.cv::Rect_", ptr %78, i32 0, i32 3
  %80 = load double, ptr %79, align 8, !tbaa !14
  store double %80, ptr %12, align 8, !tbaa !8
  %81 = load i32, ptr %13, align 4, !tbaa !15
  %82 = sext i32 %81 to i64
  %83 = getelementptr inbounds [60 x i32], ptr @_ZN2cv6detail8tracking3tld14votFrameOffsetE, i64 0, i64 %82
  %84 = load i32, ptr %83, align 4, !tbaa !15
  store i32 %84, ptr @_ZN2cv6detail8tracking3tld8frameNumE, align 4, !tbaa !15
  %85 = load i32, ptr %13, align 4, !tbaa !15
  %86 = sext i32 %85 to i64
  %87 = getelementptr inbounds [60 x i8], ptr @_ZN2cv6detail8tracking3tld10votFlagPNGE, i64 0, i64 %86
  %88 = load i8, ptr %87, align 1, !tbaa !19, !range !21, !noundef !22
  %89 = trunc i8 %88 to i1
  %90 = zext i1 %89 to i8
  store i8 %90, ptr @_ZN2cv6detail8tracking3tld7flagPNGE, align 1, !tbaa !19
  store i8 1, ptr @_ZN2cv6detail8tracking3tld7flagVOTE, align 1, !tbaa !19
  br label %91

91:                                               ; preds = %56, %53
  %92 = load ptr, ptr %6, align 8, !tbaa !17
  %93 = call ptr @strcpy(ptr noundef @_ZN2cv6detail8tracking3tld11tldRootPathE, ptr noundef %92) #3
  %94 = call ptr @strcat(ptr noundef @_ZN2cv6detail8tracking3tld11tldRootPathE, ptr noundef @.str.73) #3
  %95 = load ptr, ptr %8, align 8, !tbaa !17
  %96 = call ptr @strcat(ptr noundef @_ZN2cv6detail8tracking3tld11tldRootPathE, ptr noundef %95) #3
  %97 = load double, ptr %9, align 8, !tbaa !8
  %98 = load double, ptr %10, align 8, !tbaa !8
  %99 = load double, ptr %11, align 8, !tbaa !8
  %100 = load double, ptr %12, align 8, !tbaa !8
  call void @_ZN2cv5Rect_IdEC2Edddd(ptr noundef nonnull align 8 dereferenceable(32) %0, double noundef %97, double noundef %98, double noundef %99, double noundef %100)
  call void @llvm.lifetime.end.p0(i64 4, ptr %13) #3
  call void @llvm.lifetime.end.p0(i64 8, ptr %12) #3
  call void @llvm.lifetime.end.p0(i64 8, ptr %11) #3
  call void @llvm.lifetime.end.p0(i64 8, ptr %10) #3
  call void @llvm.lifetime.end.p0(i64 8, ptr %9) #3
  call void @llvm.lifetime.end.p0(i64 8, ptr %8) #3
  ret void
}